target datalayout = "e-m:e-p270:32:32-p271:32:32-p272:64:64-i64:64-i128:128-f80:128-n8:16:32:64-S128"
target triple = "x86_64-pc-linux-gnu"

@hf_ocp1_params_ono = internal global i32 0, align 4
@hf_ocp1_params_blob = internal global i32 0, align 4
@hf_ocp1_params_blob_datasize = internal global i32 0, align 4
@hf_ocp1_params_blob_data = internal global i32 0, align 4
@hf_ocp1_params_libvol_id = internal global i32 0, align 4
@hf_ocp1_params_time_ptp_negative = internal global i32 0, align 4
@hf_ocp1_params_time_ptp = internal global i32 0, align 4
@hf_ocp1_params_time_ptp_seconds = internal global i32 0, align 4
@hf_ocp1_params_time_ptp_nanoseconds = internal global i32 0, align 4
@hf_ocp1_params_time_mode = internal global i32 0, align 4
@hf_ocp1_params_time_units = internal global i32 0, align 4
@hf_ocp1_params_task_id = internal global i32 0, align 4
@hf_ocp1_params_task_group_id = internal global i32 0, align 4
@hf_ocp1_params_time_interval = internal global i32 0, align 4
@hf_ocp1_params_start_time = internal global i32 0, align 4
@ett_ocp1_params_blob = internal global i32 0, align 4
@ett_ocp1_params_ptp = internal global i32 0, align 4
@.str.392 = private unnamed_addr constant [5 x i8] c"%s: \00", align 1
@.str.462 = private unnamed_addr constant [6 x i8] c"Label\00", align 1
@.str.463 = private unnamed_addr constant [30 x i8] c"ApplicationSpecificParameters\00", align 1

; Function Attrs: null_pointer_is_valid sspstrong uwtable
define internal i32 @decode_params_OcaLibVolID(ptr noundef %0, i32 noundef %1, ptr noundef %2) #0 {
  %4 = alloca ptr, align 8
  %5 = alloca i32, align 4
  %6 = alloca ptr, align 8
  store ptr %0, ptr %4, align 8
  store i32 %1, ptr %5, align 4
  store ptr %2, ptr %6, align 8
  %7 = load ptr, ptr %6, align 8
  %8 = load i32, ptr @hf_ocp1_params_libvol_id, align 4
  %9 = load ptr, ptr %4, align 8
  %10 = load i32, ptr %5, align 4
  %11 = call ptr @proto_tree_add_item(ptr noundef %7, i32 noundef %8, ptr noundef %9, i32 noundef %10, i32 noundef 4, i32 noundef 0)
  ret i32 4
}

; Function Attrs: null_pointer_is_valid sspstrong uwtable
define internal i32 @decode_params_OcaBlob(ptr noundef %0, i32 noundef %1, ptr noundef %2, ptr noundef %3) #0 {
  %5 = alloca ptr, align 8
  %6 = alloca i32, align 4
  %7 = alloca ptr, align 8
  %8 = alloca ptr, align 8
  %9 = alloca ptr, align 8
  %10 = alloca ptr, align 8
  %11 = alloca i32, align 4
  %12 = alloca i16, align 2
  store ptr %0, ptr %5, align 8
  store i32 %1, ptr %6, align 4
  store ptr %2, ptr %7, align 8
  store ptr %3, ptr %8, align 8
  call void @llvm.lifetime.start.p0(i64 8, ptr %9) #9
  call void @llvm.lifetime.start.p0(i64 8, ptr %10) #9
  call void @llvm.lifetime.start.p0(i64 4, ptr %11) #9
  %13 = load i32, ptr %6, align 4
  store i32 %13, ptr %11, align 4
  call void @llvm.lifetime.start.p0(i64 2, ptr %12) #9
  %14 = load ptr, ptr %5, align 8
  %15 = load i32, ptr %6, align 4
  %16 = call zeroext i16 @tvb_get_uint16(ptr noundef %14, i32 noundef %15, i32 noundef 0)
  store i16 %16, ptr %12, align 2
  %17 = load ptr, ptr %7, align 8
  %18 = load i32, ptr @hf_ocp1_params_blob, align 4
  %19 = load ptr, ptr %5, align 8
  %20 = load i32, ptr %11, align 4
  %21 = load i16, ptr %12, align 2
  %22 = zext i16 %21 to i32
  %23 = add i32 2, %22
  %24 = call ptr @proto_tree_add_item(ptr noundef %17, i32 noundef %18, ptr noundef %19, i32 noundef %20, i32 noundef %23, i32 noundef 0)
  store ptr %24, ptr %10, align 8
  %25 = load ptr, ptr %10, align 8
  %26 = load ptr, ptr %8, align 8
  call void (ptr, ptr, ...) @proto_item_prepend_text(ptr noundef %25, ptr noundef @.str.392, ptr noundef %26)
  %27 = load ptr, ptr %10, align 8
  %28 = load i32, ptr @ett_ocp1_params_blob, align 4
  %29 = call ptr @proto_item_add_subtree(ptr noundef %27, i32 noundef %28)
  store ptr %29, ptr %9, align 8
  %30 = load ptr, ptr %9, align 8
  %31 = load i32, ptr @hf_ocp1_params_blob_datasize, align 4
  %32 = load ptr, ptr %5, align 8
  %33 = load i32, ptr %11, align 4
  %34 = call ptr @proto_tree_add_item(ptr noundef %30, i32 noundef %31, ptr noundef %32, i32 noundef %33, i32 noundef 2, i32 noundef 0)
  %35 = load i32, ptr %11, align 4
  %36 = add i32 %35, 2
  store i32 %36, ptr %11, align 4
  %37 = load ptr, ptr %9, align 8
  %38 = load i32, ptr @hf_ocp1_params_blob_data, align 4
  %39 = load ptr, ptr %5, align 8
  %40 = load i32, ptr %11, align 4
  %41 = load i16, ptr %12, align 2
  %42 = zext i16 %41 to i32
  %43 = call ptr @proto_tree_add_item(ptr noundef %37, i32 noundef %38, ptr noundef %39, i32 noundef %40, i32 noundef %42, i32 noundef 0)
  %44 = load i16, ptr %12, align 2
  %45 = zext i16 %44 to i32
  %46 = load i32, ptr %11, align 4
  %47 = add i32 %46, %45
  store i32 %47, ptr %11, align 4
  %48 = load i32, ptr %11, align 4
  %49 = load i32, ptr %6, align 4
  %50 = sub i32 %48, %49
  call void @llvm.lifetime.end.p0(i64 2, ptr %12) #9
  call void @llvm.lifetime.end.p0(i64 4, ptr %11) #9
  call void @llvm.lifetime.end.p0(i64 8, ptr %10) #9
  call void @llvm.lifetime.end.p0(i64 8, ptr %9) #9
  ret i32 %50
}

; Function Attrs: null_pointer_is_valid sspstrong uwtable
define internal i32 @decode_params_OcaTimeInterval(ptr noundef %0, i32 noundef %1, ptr noundef %2) #0 {
  %4 = alloca ptr, align 8
  %5 = alloca i32, align 4
  %6 = alloca ptr, align 8
  store ptr %0, ptr %4, align 8
  store i32 %1, ptr %5, align 4
  store ptr %2, ptr %6, align 8
  %7 = load ptr, ptr %6, align 8
  %8 = load i32, ptr @hf_ocp1_params_time_interval, align 4
  %9 = load ptr, ptr %4, align 8
  %10 = load i32, ptr %5, align 4
  %11 = call ptr @proto_tree_add_item(ptr noundef %7, i32 noundef %8, ptr noundef %9, i32 noundef %10, i32 noundef 4, i32 noundef 0)
  ret i32 4
}

; Function Attrs: null_pointer_is_valid sspstrong uwtable
define internal i32 @decode_params_OcaTimePTP(ptr noundef %0, i32 noundef %1, ptr noundef %2) #0 {
  %4 = alloca ptr, align 8
  %5 = alloca i32, align 4
  %6 = alloca ptr, align 8
  %7 = alloca i32, align 4
  %8 = alloca ptr, align 8
  %9 = alloca ptr, align 8
  store ptr %0, ptr %4, align 8
  store i32 %1, ptr %5, align 4
  store ptr %2, ptr %6, align 8
  call void @llvm.lifetime.start.p0(i64 4, ptr %7) #9
  %10 = load i32, ptr %5, align 4
  store i32 %10, ptr %7, align 4
  call void @llvm.lifetime.start.p0(i64 8, ptr %8) #9
  call void @llvm.lifetime.start.p0(i64 8, ptr %9) #9
  %11 = load ptr, ptr %6, align 8
  %12 = load i32, ptr @hf_ocp1_params_time_ptp_negative, align 4
  %13 = load ptr, ptr %4, align 8
  %14 = load i32, ptr %7, align 4
  %15 = call ptr @proto_tree_add_item(ptr noundef %11, i32 noundef %12, ptr noundef %13, i32 noundef %14, i32 noundef 1, i32 noundef 0)
  %16 = load i32, ptr %7, align 4
  %17 = add i32 %16, 1
  store i32 %17, ptr %7, align 4
  %18 = load ptr, ptr %6, align 8
  %19 = load i32, ptr @hf_ocp1_params_time_ptp, align 4
  %20 = load ptr, ptr %4, align 8
  %21 = load i32, ptr %7, align 4
  %22 = call ptr @proto_tree_add_item(ptr noundef %18, i32 noundef %19, ptr noundef %20, i32 noundef %21, i32 noundef 12, i32 noundef 0)
  store ptr %22, ptr %8, align 8
  %23 = load ptr, ptr %8, align 8
  %24 = load i32, ptr @ett_ocp1_params_ptp, align 4
  %25 = call ptr @proto_item_add_subtree(ptr noundef %23, i32 noundef %24)
  store ptr %25, ptr %9, align 8
  %26 = load ptr, ptr %9, align 8
  %27 = load i32, ptr @hf_ocp1_params_time_ptp_seconds, align 4
  %28 = load ptr, ptr %4, align 8
  %29 = load i32, ptr %7, align 4
  %30 = call ptr @proto_tree_add_item(ptr noundef %26, i32 noundef %27, ptr noundef %28, i32 noundef %29, i32 noundef 8, i32 noundef 0)
  %31 = load i32, ptr %7, align 4
  %32 = add i32 %31, 8
  store i32 %32, ptr %7, align 4
  %33 = load ptr, ptr %9, align 8
  %34 = load i32, ptr @hf_ocp1_params_time_ptp_nanoseconds, align 4
  %35 = load ptr, ptr %4, align 8
  %36 = load i32, ptr %7, align 4
  %37 = call ptr @proto_tree_add_item(ptr noundef %33, i32 noundef %34, ptr noundef %35, i32 noundef %36, i32 noundef 4, i32 noundef 0)
  %38 = load i32, ptr %7, align 4
  %39 = add i32 %38, 4
  store i32 %39, ptr %7, align 4
  %40 = load i32, ptr %7, align 4
  %41 = load i32, ptr %5, align 4
  %42 = sub i32 %40, %41
  call void @llvm.lifetime.end.p0(i64 8, ptr %9) #9
  call void @llvm.lifetime.end.p0(i64 8, ptr %8) #9
  call void @llvm.lifetime.end.p0(i64 4, ptr %7) #9
  ret i32 %42
}

; Function Attrs: null_pointer_is_valid sspstrong uwtable
define internal i32 @decode_params_OcaONo(ptr noundef %0, i32 noundef %1, ptr noundef %2) #0 {
  %4 = alloca ptr, align 8
  %5 = alloca i32, align 4
  %6 = alloca ptr, align 8
  store ptr %0, ptr %4, align 8
  store i32 %1, ptr %5, align 4
  store ptr %2, ptr %6, align 8
  %7 = load ptr, ptr %6, align 8
  %8 = load i32, ptr @hf_ocp1_params_ono, align 4
  %9 = load ptr, ptr %4, align 8
  %10 = load i32, ptr %5, align 4
  %11 = call ptr @proto_tree_add_item(ptr noundef %7, i32 noundef %8, ptr noundef %9, i32 noundef %10, i32 noundef 4, i32 noundef 0)
  ret i32 4
}

; Function Attrs: null_pointer_is_valid sspstrong uwtable
define internal i32 @decode_params_OcaTimeUnits(ptr noundef %0, i32 noundef %1, ptr noundef %2) #0 {
  %4 = alloca ptr, align 8
  %5 = alloca i32, align 4
  %6 = alloca ptr, align 8
  store ptr %0, ptr %4, align 8
  store i32 %1, ptr %5, align 4
  store ptr %2, ptr %6, align 8
  %7 = load ptr, ptr %6, align 8
  %8 = load i32, ptr @hf_ocp1_params_time_units, align 4
  %9 = load ptr, ptr %4, align 8
  %10 = load i32, ptr %5, align 4
  %11 = call ptr @proto_tree_add_item(ptr noundef %7, i32 noundef %8, ptr noundef %9, i32 noundef %10, i32 noundef 1, i32 noundef 0)
  ret i32 1
}

; Function Attrs: null_pointer_is_valid sspstrong uwtable
define internal i32 @decode_params_OcaTimeMode(ptr noundef %0, i32 noundef %1, ptr noundef %2) #0 {
  %4 = alloca ptr, align 8
  %5 = alloca i32, align 4
  %6 = alloca ptr, align 8
  store ptr %0, ptr %4, align 8
  store i32 %1, ptr %5, align 4
  store ptr %2, ptr %6, align 8
  %7 = load ptr, ptr %6, align 8
  %8 = load i32, ptr @hf_ocp1_params_time_mode, align 4
  %9 = load ptr, ptr %4, align 8
  %10 = load i32, ptr %5, align 4
  %11 = call ptr @proto_tree_add_item(ptr noundef %7, i32 noundef %8, ptr noundef %9, i32 noundef %10, i32 noundef 1, i32 noundef 0)
  ret i32 1
}

; Function Attrs: null_pointer_is_valid sspstrong uwtable
define internal i32 @decode_params_OcaTaskGroupID(ptr noundef %0, i32 noundef %1, ptr noundef %2) #0 {
  %4 = alloca ptr, align 8
  %5 = alloca i32, align 4
  %6 = alloca ptr, align 8
  store ptr %0, ptr %4, align 8
  store i32 %1, ptr %5, align 4
  store ptr %2, ptr %6, align 8
  %7 = load ptr, ptr %6, align 8
  %8 = load i32, ptr @hf_ocp1_params_task_group_id, align 4
  %9 = load ptr, ptr %4, align 8
  %10 = load i32, ptr %5, align 4
  %11 = call ptr @proto_tree_add_item(ptr noundef %7, i32 noundef %8, ptr noundef %9, i32 noundef %10, i32 noundef 2, i32 noundef 0)
  ret i32 2
}

; Function Attrs: null_pointer_is_valid sspstrong uwtable
define internal i32 @decode_params_OcaLibVolIdentifier(ptr noundef %0, i32 noundef %1, ptr noundef %2) #0 {
  %4 = alloca ptr, align 8
  %5 = alloca i32, align 4
  %6 = alloca ptr, align 8
  %7 = alloca i32, align 4
  store ptr %0, ptr %4, align 8
  store i32 %1, ptr %5, align 4
  store ptr %2, ptr %6, align 8
  call void @llvm.lifetime.start.p0(i64 4, ptr %7) #9
  %8 = load i32, ptr %5, align 4
  store i32 %8, ptr %7, align 4
  %9 = load ptr, ptr %4, align 8
  %10 = load i32, ptr %7, align 4
  %11 = load ptr, ptr %6, align 8
  %12 = call i32 @decode_params_OcaONo(ptr noundef %9, i32 noundef %10, ptr noundef %11)
  %13 = load i32, ptr %7, align 4
  %14 = add i32 %13, %12
  store i32 %14, ptr %7, align 4
  %15 = load ptr, ptr %4, align 8
  %16 = load i32, ptr %7, align 4
  %17 = load ptr, ptr %6, align 8
  %18 = call i32 @decode_params_OcaLibVolID(ptr noundef %15, i32 noundef %16, ptr noundef %17)
  %19 = load i32, ptr %7, align 4
  %20 = add i32 %19, %18
  store i32 %20, ptr %7, align 4
  %21 = load i32, ptr %7, align 4
  %22 = load i32, ptr %5, align 4
  %23 = sub i32 %21, %22
  call void @llvm.lifetime.end.p0(i64 4, ptr %7) #9
  ret i32 %23
}

; Function Attrs: null_pointer_is_valid sspstrong uwtable
define internal i32 @decode_params_OcaTaskID(ptr noundef %0, i32 noundef %1, ptr noundef %2) #0 {
  %4 = alloca ptr, align 8
  %5 = alloca i32, align 4
  %6 = alloca ptr, align 8
  store ptr %0, ptr %4, align 8
  store i32 %1, ptr %5, align 4
  store ptr %2, ptr %6, align 8
  %7 = load ptr, ptr %6, align 8
  %8 = load i32, ptr @hf_ocp1_params_task_id, align 4
  %9 = load ptr, ptr %4, align 8
  %10 = load i32, ptr %5, align 4
  %11 = call ptr @proto_tree_add_item(ptr noundef %7, i32 noundef %8, ptr noundef %9, i32 noundef %10, i32 noundef 4, i32 noundef 0)
  ret i32 4
}

; Function Attrs: null_pointer_is_valid sspstrong uwtable
define internal i32 @decode_params_OcaTask(ptr noundef %0, i32 noundef %1, ptr noundef %2) #0 {
  %4 = alloca i32, align 4
  %5 = alloca ptr, align 8
  %6 = alloca i32, align 4
  %7 = alloca ptr, align 8
  %8 = alloca i32, align 4
  %9 = alloca i8, align 1
  %10 = alloca i32, align 4
  store ptr %0, ptr %5, align 8
  store i32 %1, ptr %6, align 4
  store ptr %2, ptr %7, align 8
  call void @llvm.lifetime.start.p0(i64 4, ptr %8) #9
  %11 = load i32, ptr %6, align 4
  store i32 %11, ptr %8, align 4
  %12 = load ptr, ptr %5, align 8
  %13 = load i32, ptr %8, align 4
  %14 = load ptr, ptr %7, align 8
  %15 = call i32 @decode_params_OcaTaskID(ptr noundef %12, i32 noundef %13, ptr noundef %14)
  %16 = load i32, ptr %8, align 4
  %17 = add i32 %16, %15
  store i32 %17, ptr %8, align 4
  %18 = load ptr, ptr %5, align 8
  %19 = load i32, ptr %8, align 4
  %20 = load ptr, ptr %7, align 8
  %21 = call i32 @decode_params_OcaString(ptr noundef %18, i32 noundef %19, ptr noundef %20, ptr noundef @.str.462)
  %22 = load i32, ptr %8, align 4
  %23 = add i32 %22, %21
  store i32 %23, ptr %8, align 4
  %24 = load ptr, ptr %5, align 8
  %25 = load i32, ptr %8, align 4
  %26 = load ptr, ptr %7, align 8
  %27 = call i32 @decode_params_OcaLibVolIdentifier(ptr noundef %24, i32 noundef %25, ptr noundef %26)
  %28 = load i32, ptr %8, align 4
  %29 = add i32 %28, %27
  store i32 %29, ptr %8, align 4
  %30 = load ptr, ptr %5, align 8
  %31 = load i32, ptr %8, align 4
  %32 = load ptr, ptr %7, align 8
  %33 = call i32 @decode_params_OcaTaskGroupID(ptr noundef %30, i32 noundef %31, ptr noundef %32)
  %34 = load i32, ptr %8, align 4
  %35 = add i32 %34, %33
  store i32 %35, ptr %8, align 4
  call void @llvm.lifetime.start.p0(i64 1, ptr %9) #9
  %36 = load ptr, ptr %5, align 8
  %37 = load i32, ptr %8, align 4
  %38 = call zeroext i8 @tvb_get_uint8(ptr noundef %36, i32 noundef %37)
  store i8 %38, ptr %9, align 1
  %39 = load ptr, ptr %5, align 8
  %40 = load i32, ptr %8, align 4
  %41 = load ptr, ptr %7, align 8
  %42 = call i32 @decode_params_OcaTimeMode(ptr noundef %39, i32 noundef %40, ptr noundef %41)
  %43 = load i32, ptr %8, align 4
  %44 = add i32 %43, %42
  store i32 %44, ptr %8, align 4
  %45 = load ptr, ptr %5, align 8
  %46 = load i32, ptr %8, align 4
  %47 = load ptr, ptr %7, align 8
  %48 = call i32 @decode_params_OcaTimeUnits(ptr noundef %45, i32 noundef %46, ptr noundef %47)
  %49 = load i32, ptr %8, align 4
  %50 = add i32 %49, %48
  store i32 %50, ptr %8, align 4
  %51 = load ptr, ptr %5, align 8
  %52 = load i32, ptr %8, align 4
  %53 = load ptr, ptr %7, align 8
  %54 = call i32 @decode_params_OcaONo(ptr noundef %51, i32 noundef %52, ptr noundef %53)
  %55 = load i32, ptr %8, align 4
  %56 = add i32 %55, %54
  store i32 %56, ptr %8, align 4
  %57 = load i8, ptr %9, align 1
  %58 = zext i8 %57 to i32
  %59 = icmp eq i32 %58, 1
  br i1 %59, label %60, label %67

60:                                               ; preds = %3
  %61 = load ptr, ptr %5, align 8
  %62 = load i32, ptr %8, align 4
  %63 = load ptr, ptr %7, align 8
  %64 = call i32 @decode_params_OcaTimePTP(ptr noundef %61, i32 noundef %62, ptr noundef %63)
  %65 = load i32, ptr %8, align 4
  %66 = add i32 %65, %64
  store i32 %66, ptr %8, align 4
  br label %84

67:                                               ; preds = %3
  %68 = load i8, ptr %9, align 1
  %69 = zext i8 %68 to i32
  %70 = icmp eq i32 %69, 2
  br i1 %70, label %71, label %79

71:                                               ; preds = %67
  %72 = load ptr, ptr %7, align 8
  %73 = load i32, ptr @hf_ocp1_params_start_time, align 4
  %74 = load ptr, ptr %5, align 8
  %75 = load i32, ptr %8, align 4
  %76 = call ptr @proto_tree_add_item(ptr noundef %72, i32 noundef %73, ptr noundef %74, i32 noundef %75, i32 noundef 8, i32 noundef 0)
  %77 = load i32, ptr %8, align 4
  %78 = add i32 %77, 8
  store i32 %78, ptr %8, align 4
  br label %83

79:                                               ; preds = %67
  %80 = load i32, ptr %8, align 4
  %81 = load i32, ptr %6, align 4
  %82 = sub i32 %80, %81
  store i32 %82, ptr %4, align 4
  store i32 1, ptr %10, align 4
  br label %100

83:                                               ; preds = %71
  br label %84

84:                                               ; preds = %83, %60
  %85 = load ptr, ptr %5, align 8
  %86 = load i32, ptr %8, align 4
  %87 = load ptr, ptr %7, align 8
  %88 = call i32 @decode_params_OcaTimeInterval(ptr noundef %85, i32 noundef %86, ptr noundef %87)
  %89 = load i32, ptr %8, align 4
  %90 = add i32 %89, %88
  store i32 %90, ptr %8, align 4
  %91 = load ptr, ptr %5, align 8
  %92 = load i32, ptr %8, align 4
  %93 = load ptr, ptr %7, align 8
  %94 = call i32 @decode_params_OcaBlob(ptr noundef %91, i32 noundef %92, ptr noundef %93, ptr noundef @.str.463)
  %95 = load i32, ptr %8, align 4
  %96 = add i32 %95, %94
  store i32 %96, ptr %8, align 4
  %97 = load i32, ptr %8, align 4
  %98 = load i32, ptr %6, align 4
  %99 = sub i32 %97, %98
  store i32 %99, ptr %4, align 4
  store i32 1, ptr %10, align 4
  br label %100

100:                                              ; preds = %84, %79
  call void @llvm.lifetime.end.p0(i64 1, ptr %9) #9
  call void @llvm.lifetime.end.p0(i64 4, ptr %8) #9
  %101 = load i32, ptr %4, align 4
  ret i32 %101
}