; Function Attrs: null_pointer_is_valid sspstrong uwtable
define internal fastcc noundef i32 @decode_params_OcaTask(ptr noundef %0, i32 noundef %1, ptr noundef %2) unnamed_addr #0 {
  %4 = load i32, ptr @hf_ocp1_params_task_id, align 4
  %5 = tail call ptr @proto_tree_add_item(ptr noundef %2, i32 noundef %4, ptr noundef %0, i32 noundef %1, i32 noundef 4, i32 noundef 0)
  %6 = add i32 %1, 4
  %7 = tail call fastcc i32 @decode_params_OcaString(ptr noundef %0, i32 noundef %6, ptr noundef %2, ptr noundef nonnull @.str.462)
  %8 = add i32 %7, %6
  %9 = load i32, ptr @hf_ocp1_params_ono, align 4
  %10 = tail call ptr @proto_tree_add_item(ptr noundef %2, i32 noundef %9, ptr noundef %0, i32 noundef %8, i32 noundef 4, i32 noundef 0)
  %11 = add i32 %8, 4
  %12 = load i32, ptr @hf_ocp1_params_libvol_id, align 4
  %13 = tail call ptr @proto_tree_add_item(ptr noundef %2, i32 noundef %12, ptr noundef %0, i32 noundef %11, i32 noundef 4, i32 noundef 0)
  %14 = add i32 %8, 8
  %15 = load i32, ptr @hf_ocp1_params_task_group_id, align 4
  %16 = tail call ptr @proto_tree_add_item(ptr noundef %2, i32 noundef %15, ptr noundef %0, i32 noundef %14, i32 noundef 2, i32 noundef 0)
  %17 = add i32 %8, 10
  %18 = tail call zeroext i8 @tvb_get_uint8(ptr noundef %0, i32 noundef %17)
  %19 = load i32, ptr @hf_ocp1_params_time_mode, align 4
  %20 = tail call ptr @proto_tree_add_item(ptr noundef %2, i32 noundef %19, ptr noundef %0, i32 noundef %17, i32 noundef 1, i32 noundef 0)
  %21 = add i32 %8, 11
  %22 = load i32, ptr @hf_ocp1_params_time_units, align 4
  %23 = tail call ptr @proto_tree_add_item(ptr noundef %2, i32 noundef %22, ptr noundef %0, i32 noundef %21, i32 noundef 1, i32 noundef 0)
  %24 = add i32 %8, 12
  %25 = load i32, ptr @hf_ocp1_params_ono, align 4
  %26 = tail call ptr @proto_tree_add_item(ptr noundef %2, i32 noundef %25, ptr noundef %0, i32 noundef %24, i32 noundef 4, i32 noundef 0)
  %27 = add i32 %8, 16
  switch i8 %18, label %62 [
    i8 1, label %28
    i8 2, label %41
  ]

28:                                               ; preds = %3
  %29 = load i32, ptr @hf_ocp1_params_time_ptp_negative, align 4
  %30 = tail call ptr @proto_tree_add_item(ptr noundef %2, i32 noundef %29, ptr noundef %0, i32 noundef %27, i32 noundef 1, i32 noundef 0)
  %31 = add i32 %8, 17
  %32 = load i32, ptr @hf_ocp1_params_time_ptp, align 4
  %33 = tail call ptr @proto_tree_add_item(ptr noundef %2, i32 noundef %32, ptr noundef %0, i32 noundef %31, i32 noundef 12, i32 noundef 0)
  %34 = load i32, ptr @ett_ocp1_params_ptp, align 4
  %35 = tail call ptr @proto_item_add_subtree(ptr noundef %33, i32 noundef %34)
  %36 = load i32, ptr @hf_ocp1_params_time_ptp_seconds, align 4
  %37 = tail call ptr @proto_tree_add_item(ptr noundef %35, i32 noundef %36, ptr noundef %0, i32 noundef %31, i32 noundef 8, i32 noundef 0)
  %38 = add i32 %8, 25
  %39 = load i32, ptr @hf_ocp1_params_time_ptp_nanoseconds, align 4
  %40 = tail call ptr @proto_tree_add_item(ptr noundef %35, i32 noundef %39, ptr noundef %0, i32 noundef %38, i32 noundef 4, i32 noundef 0)
  br label %44

41:                                               ; preds = %3
  %42 = load i32, ptr @hf_ocp1_params_start_time, align 4
  %43 = tail call ptr @proto_tree_add_item(ptr noundef %2, i32 noundef %42, ptr noundef %0, i32 noundef %27, i32 noundef 8, i32 noundef 0)
  br label %44

44:                                               ; preds = %41, %28
  %.sink = phi i32 [ 24, %41 ], [ 29, %28 ]
  %45 = add i32 %8, %.sink
  %46 = load i32, ptr @hf_ocp1_params_time_interval, align 4
  %47 = tail call ptr @proto_tree_add_item(ptr noundef %2, i32 noundef %46, ptr noundef %0, i32 noundef %45, i32 noundef 4, i32 noundef 0)
  %48 = add i32 %45, 4
  %49 = tail call zeroext i16 @tvb_get_uint16(ptr noundef %0, i32 noundef %48, i32 noundef 0)
  %50 = load i32, ptr @hf_ocp1_params_blob, align 4
  %51 = zext i16 %49 to i32
  %52 = add nuw nsw i32 %51, 2
  %53 = tail call ptr @proto_tree_add_item(ptr noundef %2, i32 noundef %50, ptr noundef %0, i32 noundef %48, i32 noundef %52, i32 noundef 0)
  tail call void (ptr, ptr, ...) @proto_item_prepend_text(ptr noundef %53, ptr noundef nonnull @.str.392, ptr noundef nonnull @.str.463)
  %54 = load i32, ptr @ett_ocp1_params_blob, align 4
  %55 = tail call ptr @proto_item_add_subtree(ptr noundef %53, i32 noundef %54)
  %56 = load i32, ptr @hf_ocp1_params_blob_datasize, align 4
  %57 = tail call ptr @proto_tree_add_item(ptr noundef %55, i32 noundef %56, ptr noundef %0, i32 noundef %48, i32 noundef 2, i32 noundef 0)
  %58 = add i32 %45, 6
  %59 = load i32, ptr @hf_ocp1_params_blob_data, align 4
  %60 = tail call ptr @proto_tree_add_item(ptr noundef %55, i32 noundef %59, ptr noundef %0, i32 noundef %58, i32 noundef %51, i32 noundef 0)
  %61 = add i32 %52, %48
  br label %62

62:                                               ; preds = %3, %44
  %.pn = phi i32 [ %61, %44 ], [ %27, %3 ]
  %.0 = sub i32 %.pn, %1
  ret i32 %.0
}